; Function Attrs: mustprogress uwtable
define noundef i32 @_ZNK6icu_758TimeZone13getDSTSavingsEv(ptr noundef nonnull align 8 dereferenceable(72) %this) unnamed_addr #0 align 2 {
entry:
  %vtable = load ptr, ptr %this, align 8
  %vfn = getelementptr inbounds i8, ptr %vtable, i64 72
  %0 = load ptr, ptr %vfn, align 8
  %call = tail call noundef signext i8 %0(ptr noundef nonnull align 8 dereferenceable(72) %this)
  %tobool.not = icmp eq i8 %call, 0
  %. = select i1 %tobool.not, i32 0, i32 3600000
  ret i32 %.
}